; Function Attrs: nounwind uwtable
define noalias nonnull ptr @l_Lean_PersistentArray_forInAux___at_Lean_Meta_Grind_Arith_Cutsat_getDiseqValues___spec__2___lambda__1(ptr noundef %0, ptr noundef readnone captures(none) %1, i8 noundef zeroext %2, ptr noundef readnone captures(none) %3, ptr noundef readnone captures(none) %4, ptr noundef readnone captures(none) %5, ptr noundef readnone captures(none) %6, ptr noundef readnone captures(none) %7, ptr noundef readnone captures(none) %8, ptr noundef readnone captures(none) %9, ptr noundef readnone captures(none) %10, ptr noundef readnone captures(none) %11, ptr noundef %12) local_unnamed_addr #1 {
  tail call void @lean_inc_heartbeat() #6
  %14 = tail call noalias ptr @mi_malloc_small(i64 noundef 16) #6
  %15 = icmp eq ptr %14, null
  br i1 %15, label %16, label %lean_alloc_ctor.exit

16:                                               ; preds = %13
  tail call void @lean_internal_panic_out_of_memory() #7
  unreachable

lean_alloc_ctor.exit:                             ; preds = %13
  %17 = getelementptr inbounds nuw i8, ptr %14, i64 4
  store i32 1, ptr %14, align 4, !tbaa !6
  store i32 16842768, ptr %17, align 4
  %18 = getelementptr inbounds nuw i8, ptr %14, i64 8
  store ptr %0, ptr %18, align 8, !tbaa !11
  tail call void @lean_inc_heartbeat() #6
  %19 = tail call noalias ptr @mi_malloc_small(i64 noundef 24) #6
  %20 = icmp eq ptr %19, null
  br i1 %20, label %21, label %lean_alloc_ctor.exit7

21:                                               ; preds = %lean_alloc_ctor.exit
  tail call void @lean_internal_panic_out_of_memory() #7
  unreachable

lean_alloc_ctor.exit7:                            ; preds = %lean_alloc_ctor.exit
  %22 = getelementptr inbounds nuw i8, ptr %19, i64 4
  store i32 1, ptr %19, align 4, !tbaa !6
  store i32 131096, ptr %22, align 4
  %23 = getelementptr inbounds nuw i8, ptr %19, i64 8
  store ptr %14, ptr %23, align 8, !tbaa !11
  %24 = getelementptr inbounds nuw i8, ptr %19, i64 16
  store ptr %12, ptr %24, align 8, !tbaa !11
  ret ptr %19
}